target datalayout = "e-m:e-p270:32:32-p271:32:32-p272:64:64-i64:64-i128:128-f80:128-n8:16:32:64-S128"
target triple = "x86_64-pc-linux-gnu"

%struct.RArray = type { %struct.RBasic, %union.anon }
%struct.RBasic = type { i64, i64 }
%union.anon = type { %struct.anon }
%struct.anon = type { i64, %union.anon.0, ptr }
%union.anon.0 = type { i64 }
%struct.MEMO = type { i64, i64, i64, i64, %union.anon.1 }
%union.anon.1 = type { i64 }

@.str.78 = private unnamed_addr constant [39 x i8] c"../include/ruby/internal/core/rarray.h\00", align 1
@enum_zip.sym_each = internal constant i64 786700, align 8
@enum_zip.rbimpl_id = internal global i64 0, align 8
@.str.90 = private unnamed_addr constant [8 x i8] c"to_enum\00", align 1
@rb_eTypeError = external global i64, align 8
@.str.91 = private unnamed_addr constant [49 x i8] c"wrong argument type %li\0B (must respond to :each)\00", align 1

; Function Attrs: inlinehint nounwind sspstrong willreturn memory(read) uwtable
define internal i64 @RB_FL_TEST_RAW(i64 noundef %0, i64 noundef %1) #5 {
  %3 = alloca i64, align 8
  %4 = alloca i64, align 8
  store i64 %0, ptr %3, align 8, !tbaa !14
  store i64 %1, ptr %4, align 8, !tbaa !14
  %5 = load i64, ptr %3, align 8, !tbaa !14
  %6 = inttoptr i64 %5 to ptr
  %7 = getelementptr inbounds nuw %struct.RBasic, ptr %6, i32 0, i32 0
  %8 = load i64, ptr %7, align 8, !tbaa !88
  %9 = load i64, ptr %4, align 8, !tbaa !14
  %10 = and i64 %8, %9
  ret i64 %10
}

; Function Attrs: inlinehint nounwind sspstrong willreturn memory(read) uwtable
define internal zeroext i1 @RB_FL_ANY_RAW(i64 noundef %0, i64 noundef %1) #5 {
  %3 = alloca i64, align 8
  %4 = alloca i64, align 8
  store i64 %0, ptr %3, align 8, !tbaa !14
  store i64 %1, ptr %4, align 8, !tbaa !14
  %5 = load i64, ptr %3, align 8, !tbaa !14
  %6 = load i64, ptr %4, align 8, !tbaa !14
  %7 = call i64 @RB_FL_TEST_RAW(i64 noundef %5, i64 noundef %6) #24
  %8 = icmp ne i64 %7, 0
  ret i1 %8
}

; Function Attrs: inlinehint nounwind sspstrong willreturn memory(read) uwtable
define internal i64 @rb_intern_const(ptr noundef nonnull %0) #5 {
  %2 = alloca ptr, align 8
  %3 = alloca i64, align 8
  store ptr %0, ptr %2, align 8, !tbaa !86
  call void @llvm.lifetime.start.p0(i64 8, ptr %3) #22
  %4 = load ptr, ptr %2, align 8, !tbaa !86
  %5 = call i64 @strlen(ptr noundef %4) #24
  store i64 %5, ptr %3, align 8, !tbaa !14
  %6 = load ptr, ptr %2, align 8, !tbaa !86
  %7 = load i64, ptr %3, align 8, !tbaa !14
  %8 = call i64 @rb_intern2(ptr noundef %6, i64 noundef %7)
  call void @llvm.lifetime.end.p0(i64 8, ptr %3) #22
  ret i64 %8
}

; Function Attrs: inlinehint nounwind sspstrong willreturn memory(read) uwtable
define internal ptr @rb_array_const_ptr(i64 noundef %0) #5 {
  %2 = alloca ptr, align 8
  %3 = alloca i64, align 8
  store i64 %0, ptr %3, align 8, !tbaa !14
  %4 = load i64, ptr %3, align 8, !tbaa !14
  %5 = call zeroext i1 @RB_FL_ANY_RAW(i64 noundef %4, i64 noundef 8192) #24
  br i1 %5, label %6, label %11

6:                                                ; preds = %1
  %7 = load i64, ptr %3, align 8, !tbaa !14
  %8 = inttoptr i64 %7 to ptr
  %9 = getelementptr inbounds nuw %struct.RArray, ptr %8, i32 0, i32 1
  %10 = getelementptr inbounds [1 x i64], ptr %9, i64 0, i64 0
  store ptr %10, ptr %2, align 8
  br label %17

11:                                               ; preds = %1
  %12 = load i64, ptr %3, align 8, !tbaa !14
  %13 = inttoptr i64 %12 to ptr
  %14 = getelementptr inbounds nuw %struct.RArray, ptr %13, i32 0, i32 1
  %15 = getelementptr inbounds nuw %struct.anon, ptr %14, i32 0, i32 2
  %16 = load ptr, ptr %15, align 8, !tbaa !31
  store ptr %16, ptr %2, align 8
  br label %17

17:                                               ; preds = %11, %6
  %18 = load ptr, ptr %2, align 8
  ret ptr %18
}

; Function Attrs: inlinehint nounwind sspstrong uwtable
define internal i64 @rb_obj_wb_unprotect(i64 noundef %0, ptr noundef %1, i32 noundef %2) #3 {
  %4 = alloca i64, align 8
  %5 = alloca ptr, align 8
  %6 = alloca i32, align 4
  store i64 %0, ptr %4, align 8, !tbaa !14
  store ptr %1, ptr %5, align 8, !tbaa !86
  store i32 %2, ptr %6, align 4, !tbaa !7
  %7 = load i64, ptr %4, align 8, !tbaa !14
  call void @rb_gc_writebarrier_unprotect(i64 noundef %7)
  %8 = load i64, ptr %4, align 8, !tbaa !14
  ret i64 %8
}

; Function Attrs: inlinehint nounwind sspstrong uwtable
define internal ptr @MEMO_NEW(i64 noundef %0, i64 noundef %1, i64 noundef %2) #3 {
  %4 = alloca i64, align 8
  %5 = alloca i64, align 8
  %6 = alloca i64, align 8
  %7 = alloca ptr, align 8
  store i64 %0, ptr %4, align 8, !tbaa !14
  store i64 %1, ptr %5, align 8, !tbaa !14
  store i64 %2, ptr %6, align 8, !tbaa !14
  call void @llvm.lifetime.start.p0(i64 8, ptr %7) #22
  %8 = call i64 @rb_imemo_new(i32 noundef 5, i64 noundef 0, i64 noundef 40)
  %9 = inttoptr i64 %8 to ptr
  store ptr %9, ptr %7, align 8, !tbaa !34
  %10 = load i64, ptr %4, align 8, !tbaa !14
  %11 = load ptr, ptr %7, align 8, !tbaa !34
  %12 = getelementptr inbounds nuw %struct.MEMO, ptr %11, i32 0, i32 2
  store i64 %10, ptr %12, align 8, !tbaa !14
  %13 = load i64, ptr %5, align 8, !tbaa !14
  %14 = load ptr, ptr %7, align 8, !tbaa !34
  %15 = getelementptr inbounds nuw %struct.MEMO, ptr %14, i32 0, i32 3
  store i64 %13, ptr %15, align 8, !tbaa !14
  %16 = load i64, ptr %6, align 8, !tbaa !14
  %17 = load ptr, ptr %7, align 8, !tbaa !34
  %18 = getelementptr inbounds nuw %struct.MEMO, ptr %17, i32 0, i32 4
  store i64 %16, ptr %18, align 8, !tbaa !31
  %19 = load ptr, ptr %7, align 8, !tbaa !34
  call void @llvm.lifetime.end.p0(i64 8, ptr %7) #22
  ret ptr %19
}

; Function Attrs: inlinehint nounwind sspstrong memory(argmem: readwrite, inaccessiblemem: readwrite) uwtable
define internal i64 @rbimpl_intern_const(ptr noundef nonnull %0, ptr noundef nonnull %1) #11 {
  %3 = alloca ptr, align 8
  %4 = alloca ptr, align 8
  store ptr %0, ptr %3, align 8, !tbaa !11
  store ptr %1, ptr %4, align 8, !tbaa !86
  br label %5

5:                                                ; preds = %10, %2
  %6 = load ptr, ptr %3, align 8, !tbaa !11
  %7 = load i64, ptr %6, align 8, !tbaa !14
  %8 = icmp ne i64 %7, 0
  %9 = xor i1 %8, true
  br i1 %9, label %10, label %14

10:                                               ; preds = %5
  %11 = load ptr, ptr %4, align 8, !tbaa !86
  %12 = call i64 @rb_intern_const(ptr noundef %11) #24
  %13 = load ptr, ptr %3, align 8, !tbaa !11
  store i64 %12, ptr %13, align 8, !tbaa !14
  br label %5, !llvm.loop !124

14:                                               ; preds = %5
  %15 = load ptr, ptr %3, align 8, !tbaa !11
  %16 = load i64, ptr %15, align 8, !tbaa !14
  ret i64 %16
}

; Function Attrs: inlinehint nounwind sspstrong willreturn memory(none) uwtable
define internal zeroext i1 @RB_NIL_P(i64 noundef %0) #6 {
  %2 = alloca i64, align 8
  store i64 %0, ptr %2, align 8, !tbaa !14
  %3 = load i64, ptr %2, align 8, !tbaa !14
  %4 = icmp eq i64 %3, 4
  ret i1 %4
}

; Function Attrs: inlinehint nounwind sspstrong uwtable
define internal ptr @RARRAY_PTR(i64 noundef %0) #3 {
  %2 = alloca i64, align 8
  %3 = alloca i64, align 8
  store i64 %0, ptr %2, align 8, !tbaa !14
  call void @llvm.lifetime.start.p0(i64 8, ptr %3) #22
  %4 = load i64, ptr %2, align 8, !tbaa !14
  %5 = call i64 @rb_obj_wb_unprotect(i64 noundef %4, ptr noundef @.str.78, i32 noundef 370)
  store i64 %5, ptr %3, align 8, !tbaa !14
  %6 = load i64, ptr %3, align 8, !tbaa !14
  %7 = call ptr @rb_array_const_ptr(i64 noundef %6) #24
  call void @llvm.lifetime.end.p0(i64 8, ptr %3) #22
  ret ptr %7
}

; Function Attrs: nounwind sspstrong uwtable
define internal i64 @enum_zip(i32 noundef %0, ptr noundef %1, i64 noundef %2) #0 {
  %4 = alloca i32, align 4
  %5 = alloca ptr, align 8
  %6 = alloca i64, align 8
  %7 = alloca i32, align 4
  %8 = alloca i64, align 8
  %9 = alloca ptr, align 8
  %10 = alloca i64, align 8
  %11 = alloca i64, align 8
  %12 = alloca i32, align 4
  %13 = alloca i64, align 8
  %14 = alloca i32, align 4
  store i32 %0, ptr %4, align 4, !tbaa !7
  store ptr %1, ptr %5, align 8, !tbaa !11
  store i64 %2, ptr %6, align 8, !tbaa !14
  call void @llvm.lifetime.start.p0(i64 4, ptr %7) #22
  call void @llvm.lifetime.start.p0(i64 8, ptr %8) #22
  call void @llvm.lifetime.start.p0(i64 8, ptr %9) #22
  call void @llvm.lifetime.start.p0(i64 8, ptr %10) #22
  store i64 4, ptr %10, align 8, !tbaa !14
  call void @llvm.lifetime.start.p0(i64 8, ptr %11) #22
  %15 = load i32, ptr %4, align 4, !tbaa !7
  %16 = sext i32 %15 to i64
  %17 = load ptr, ptr %5, align 8, !tbaa !11
  %18 = call i64 @rb_ary_new_from_values(i64 noundef %16, ptr noundef %17)
  store i64 %18, ptr %11, align 8, !tbaa !14
  call void @llvm.lifetime.start.p0(i64 4, ptr %12) #22
  store i32 1, ptr %12, align 4, !tbaa !7
  %19 = load i64, ptr %11, align 8, !tbaa !14
  %20 = call ptr @RARRAY_PTR(i64 noundef %19)
  store ptr %20, ptr %5, align 8, !tbaa !11
  store i32 0, ptr %7, align 4, !tbaa !7
  br label %21

21:                                               ; preds = %44, %3
  %22 = load i32, ptr %7, align 4, !tbaa !7
  %23 = load i32, ptr %4, align 4, !tbaa !7
  %24 = icmp slt i32 %22, %23
  br i1 %24, label %25, label %47

25:                                               ; preds = %21
  call void @llvm.lifetime.start.p0(i64 8, ptr %13) #22
  %26 = load ptr, ptr %5, align 8, !tbaa !11
  %27 = load i32, ptr %7, align 4, !tbaa !7
  %28 = sext i32 %27 to i64
  %29 = getelementptr i64, ptr %26, i64 %28
  %30 = load i64, ptr %29, align 8, !tbaa !14
  %31 = call i64 @rb_check_array_type(i64 noundef %30)
  store i64 %31, ptr %13, align 8, !tbaa !14
  %32 = load i64, ptr %13, align 8, !tbaa !14
  %33 = call zeroext i1 @RB_NIL_P(i64 noundef %32) #25
  br i1 %33, label %34, label %35

34:                                               ; preds = %25
  store i32 0, ptr %12, align 4, !tbaa !7
  store i32 2, ptr %14, align 4
  br label %41

35:                                               ; preds = %25
  %36 = load i64, ptr %13, align 8, !tbaa !14
  %37 = load ptr, ptr %5, align 8, !tbaa !11
  %38 = load i32, ptr %7, align 4, !tbaa !7
  %39 = sext i32 %38 to i64
  %40 = getelementptr i64, ptr %37, i64 %39
  store i64 %36, ptr %40, align 8, !tbaa !14
  store i32 0, ptr %14, align 4
  br label %41

41:                                               ; preds = %35, %34
  call void @llvm.lifetime.end.p0(i64 8, ptr %13) #22
  %42 = load i32, ptr %14, align 4
  switch i32 %42, label %108 [
    i32 0, label %43
    i32 2, label %47
  ]

43:                                               ; preds = %41
  br label %44

44:                                               ; preds = %43
  %45 = load i32, ptr %7, align 4, !tbaa !7
  %46 = add i32 %45, 1
  store i32 %46, ptr %7, align 4, !tbaa !7
  br label %21, !llvm.loop !73

47:                                               ; preds = %41, %21
  %48 = load i32, ptr %12, align 4, !tbaa !7
  %49 = icmp ne i32 %48, 0
  br i1 %49, label %91, label %50

50:                                               ; preds = %47
  br label %51

51:                                               ; preds = %50
  %52 = call i64 @rbimpl_intern_const(ptr noundef @enum_zip.rbimpl_id, ptr noundef @.str.90) #26
  store i64 %52, ptr %8, align 8, !tbaa !14
  br label %53

53:                                               ; preds = %51
  br label %54

54:                                               ; preds = %53
  store i32 0, ptr %7, align 4, !tbaa !7
  br label %55

55:                                               ; preds = %87, %54
  %56 = load i32, ptr %7, align 4, !tbaa !7
  %57 = load i32, ptr %4, align 4, !tbaa !7
  %58 = icmp slt i32 %56, %57
  br i1 %58, label %59, label %90

59:                                               ; preds = %55
  %60 = load ptr, ptr %5, align 8, !tbaa !11
  %61 = load i32, ptr %7, align 4, !tbaa !7
  %62 = sext i32 %61 to i64
  %63 = getelementptr i64, ptr %60, i64 %62
  %64 = load i64, ptr %63, align 8, !tbaa !14
  %65 = call i32 @rb_respond_to(i64 noundef %64, i64 noundef 3073)
  %66 = icmp ne i32 %65, 0
  br i1 %66, label %75, label %67

67:                                               ; preds = %59
  %68 = load i64, ptr @rb_eTypeError, align 8, !tbaa !14
  %69 = load ptr, ptr %5, align 8, !tbaa !11
  %70 = load i32, ptr %7, align 4, !tbaa !7
  %71 = sext i32 %70 to i64
  %72 = getelementptr i64, ptr %69, i64 %71
  %73 = load i64, ptr %72, align 8, !tbaa !14
  %74 = call i64 @rb_obj_class(i64 noundef %73)
  call void (i64, ptr, ...) @rb_raise(i64 noundef %68, ptr noundef @.str.91, i64 noundef %74) #23
  unreachable

75:                                               ; preds = %59
  %76 = load ptr, ptr %5, align 8, !tbaa !11
  %77 = load i32, ptr %7, align 4, !tbaa !7
  %78 = sext i32 %77 to i64
  %79 = getelementptr i64, ptr %76, i64 %78
  %80 = load i64, ptr %79, align 8, !tbaa !14
  %81 = load i64, ptr %8, align 8, !tbaa !14
  %82 = call i64 @rb_funcallv(i64 noundef %80, i64 noundef %81, i32 noundef 1, ptr noundef @enum_zip.sym_each)
  %83 = load ptr, ptr %5, align 8, !tbaa !11
  %84 = load i32, ptr %7, align 4, !tbaa !7
  %85 = sext i32 %84 to i64
  %86 = getelementptr i64, ptr %83, i64 %85
  store i64 %82, ptr %86, align 8, !tbaa !14
  br label %87

87:                                               ; preds = %75
  %88 = load i32, ptr %7, align 4, !tbaa !7
  %89 = add i32 %88, 1
  store i32 %89, ptr %7, align 4, !tbaa !7
  br label %55, !llvm.loop !74

90:                                               ; preds = %55
  br label %91

91:                                               ; preds = %90, %47
  %92 = call i32 @rb_block_given_p()
  %93 = icmp ne i32 %92, 0
  br i1 %93, label %96, label %94

94:                                               ; preds = %91
  %95 = call i64 @rb_ary_new()
  store i64 %95, ptr %10, align 8, !tbaa !14
  br label %96

96:                                               ; preds = %94, %91
  %97 = load i64, ptr %10, align 8, !tbaa !14
  %98 = load i64, ptr %11, align 8, !tbaa !14
  %99 = call ptr @MEMO_NEW(i64 noundef %97, i64 noundef %98, i64 noundef 0)
  store ptr %99, ptr %9, align 8, !tbaa !34
  %100 = load i64, ptr %6, align 8, !tbaa !14
  %101 = load i32, ptr %12, align 4, !tbaa !7
  %102 = icmp ne i32 %101, 0
  %103 = select i1 %102, ptr @zip_ary, ptr @zip_i
  %104 = load ptr, ptr %9, align 8, !tbaa !34
  %105 = ptrtoint ptr %104 to i64
  %106 = call i64 @rb_block_call(i64 noundef %100, i64 noundef 3073, i32 noundef 0, ptr noundef null, ptr noundef %103, i64 noundef %105)
  %107 = load i64, ptr %10, align 8, !tbaa !14
  store i32 1, ptr %14, align 4
  call void @llvm.lifetime.end.p0(i64 4, ptr %12) #22
  call void @llvm.lifetime.end.p0(i64 8, ptr %11) #22
  call void @llvm.lifetime.end.p0(i64 8, ptr %10) #22
  call void @llvm.lifetime.end.p0(i64 8, ptr %9) #22
  call void @llvm.lifetime.end.p0(i64 8, ptr %8) #22
  call void @llvm.lifetime.end.p0(i64 4, ptr %7) #22
  ret i64 %107

108:                                              ; preds = %41
  unreachable
}