; Function Attrs: nounwind sspstrong uwtable
define internal i64 @enum_zip(i32 noundef %0, ptr noundef %1, i64 noundef %2) #0 {
  %4 = sext i32 %0 to i64
  %5 = tail call i64 @rb_ary_new_from_values(i64 noundef %4, ptr noundef %1) #14
  tail call void @rb_gc_writebarrier_unprotect(i64 noundef %5) #14
  %6 = inttoptr i64 %5 to ptr
  %7 = load i64, ptr %6, align 8, !tbaa !20
  %8 = and i64 %7, 8192
  %.not.i.i = icmp eq i64 %8, 0
  br i1 %.not.i.i, label %11, label %9

9:                                                ; preds = %3
  %10 = getelementptr inbounds nuw i8, ptr %6, i64 16
  br label %RARRAY_PTR.exit

11:                                               ; preds = %3
  %12 = getelementptr inbounds nuw i8, ptr %6, i64 32
  %13 = load ptr, ptr %12, align 8, !tbaa !22
  br label %RARRAY_PTR.exit

RARRAY_PTR.exit:                                  ; preds = %9, %11
  %.0.i.i = phi ptr [ %10, %9 ], [ %13, %11 ]
  %14 = icmp sgt i32 %0, 0
  br i1 %14, label %.lr.ph.preheader, label %.loopexit

.lr.ph.preheader:                                 ; preds = %RARRAY_PTR.exit
  %wide.trip.count = zext nneg i32 %0 to i64
  br label %.lr.ph

.lr.ph:                                           ; preds = %.lr.ph.preheader, %19
  %indvars.iv = phi i64 [ 0, %.lr.ph.preheader ], [ %indvars.iv.next, %19 ]
  %15 = getelementptr i64, ptr %.0.i.i, i64 %indvars.iv
  %16 = load i64, ptr %15, align 8, !tbaa !7
  %17 = tail call i64 @rb_check_array_type(i64 noundef %16) #14
  %18 = icmp eq i64 %17, 4
  br i1 %18, label %20, label %19

19:                                               ; preds = %.lr.ph
  store i64 %17, ptr %15, align 8, !tbaa !7
  %indvars.iv.next = add nuw nsw i64 %indvars.iv, 1
  %exitcond.not = icmp eq i64 %indvars.iv.next, %wide.trip.count
  br i1 %exitcond.not, label %.loopexit, label %.lr.ph, !llvm.loop !87

20:                                               ; preds = %.lr.ph
  %.pr.i = load i64, ptr @enum_zip.rbimpl_id, align 8, !tbaa !7
  %.not4.i = icmp eq i64 %.pr.i, 0
  br i1 %.not4.i, label %.lr.ph.i, label %.lr.ph52.preheader

.lr.ph.i:                                         ; preds = %20, %.lr.ph.i
  %21 = tail call i64 @rb_intern2(ptr noundef nonnull @.str.90, i64 noundef 7) #14
  store i64 %21, ptr @enum_zip.rbimpl_id, align 8, !tbaa !7
  %.not.i = icmp eq i64 %21, 0
  br i1 %.not.i, label %.lr.ph.i, label %.lr.ph52.preheader, !llvm.loop !88

.lr.ph52.preheader:                               ; preds = %.lr.ph.i, %20
  %.lcssa.i = phi i64 [ %.pr.i, %20 ], [ %21, %.lr.ph.i ]
  %smax = tail call i32 @llvm.smax.i32(i32 %0, i32 1)
  %wide.trip.count60 = zext nneg i32 %smax to i64
  br label %.lr.ph52

.lr.ph52:                                         ; preds = %.lr.ph52.preheader, %29
  %indvars.iv57 = phi i64 [ 0, %.lr.ph52.preheader ], [ %indvars.iv.next58, %29 ]
  %22 = getelementptr i64, ptr %.0.i.i, i64 %indvars.iv57
  %23 = load i64, ptr %22, align 8, !tbaa !7
  %24 = tail call i32 @rb_respond_to(i64 noundef %23, i64 noundef 3073) #14
  %.not35 = icmp eq i32 %24, 0
  br i1 %.not35, label %25, label %29

25:                                               ; preds = %.lr.ph52
  %26 = load i64, ptr @rb_eTypeError, align 8, !tbaa !7
  %27 = load i64, ptr %22, align 8, !tbaa !7
  %28 = tail call i64 @rb_obj_class(i64 noundef %27) #14
  tail call void (i64, ptr, ...) @rb_raise(i64 noundef %26, ptr noundef nonnull @.str.91, i64 noundef %28) #15
  unreachable

29:                                               ; preds = %.lr.ph52
  %30 = load i64, ptr %22, align 8, !tbaa !7
  %31 = tail call i64 @rb_funcallv(i64 noundef %30, i64 noundef %.lcssa.i, i32 noundef 1, ptr noundef nonnull @enum_zip.sym_each) #14
  store i64 %31, ptr %22, align 8, !tbaa !7
  %indvars.iv.next58 = add nuw nsw i64 %indvars.iv57, 1
  %exitcond61.not = icmp eq i64 %indvars.iv.next58, %wide.trip.count60
  br i1 %exitcond61.not, label %.loopexit, label %.lr.ph52, !llvm.loop !89

.loopexit:                                        ; preds = %19, %29, %RARRAY_PTR.exit
  %32 = phi ptr [ @zip_ary, %RARRAY_PTR.exit ], [ @zip_i, %29 ], [ @zip_ary, %19 ]
  %33 = tail call i32 @rb_block_given_p() #14
  %.not36 = icmp eq i32 %33, 0
  br i1 %.not36, label %34, label %36

34:                                               ; preds = %.loopexit
  %35 = tail call i64 @rb_ary_new() #14
  br label %36

36:                                               ; preds = %34, %.loopexit
  %.034 = phi i64 [ 4, %.loopexit ], [ %35, %34 ]
  %37 = tail call i64 @rb_imemo_new(i32 noundef 5, i64 noundef 0, i64 noundef 40) #14
  %38 = inttoptr i64 %37 to ptr
  %39 = getelementptr inbounds nuw i8, ptr %38, i64 16
  store i64 %.034, ptr %39, align 8, !tbaa !7
  %40 = getelementptr inbounds nuw i8, ptr %38, i64 24
  store i64 %5, ptr %40, align 8, !tbaa !7
  %41 = getelementptr inbounds nuw i8, ptr %38, i64 32
  store i64 0, ptr %41, align 8, !tbaa !22
  %42 = tail call i64 @rb_block_call(i64 noundef %2, i64 noundef 3073, i32 noundef 0, ptr noundef null, ptr noundef nonnull %32, i64 noundef %37) #14
  ret i64 %.034
}